(dp0
S'Mu50_OR_OldMu100_OR_TkMu100_PtBins'
p1
(dp2
S'histo_pt_DATA'
p3
(dp4
S'pt:[44.0,48.0]'
p5
(dp6
S'value'
p7
F0.002765466459095478
sS'error'
p8
F1.726196714371615e-05
ssS'pt:[700.0,1200.0]'
p9
(dp10
g7
F0.8507277369499207
sg8
F0.12797568690773553
ssS'pt:[48.0,50.0]'
p11
(dp12
g7
F0.06198443844914436
sg8
F0.00014875586855860566
ssS'pt:[56.0,60.0]'
p13
(dp14
g7
F0.9248024225234985
sg8
F0.0002534463515859842
ssS'pt:[60.0,120.0]'
p15
(dp16
g7
F0.9266822338104248
sg8
F0.0002245291668337172
ssS'pt:[120.0,200.0]'
p17
(dp18
g7
F0.9273640513420105
sg8
F0.0008824459496991155
ssS'pt:[300.0,500.0]'
p19
(dp20
g7
F0.9016337990760803
sg8
F0.004734903891210768
ssS'pt:[52.0,56.0]'
p21
(dp22
g7
F0.9212510585784912
sg8
F0.00019210680066212942
ssS'pt:[2.0,44.0]'
p23
(dp24
g7
F0.0003568819956853986
sg8
F7.277214023690326e-06
ssS'pt:[50.0,52.0]'
p25
(dp26
g7
F0.8410595059394836
sg8
F0.00027537830990859825
ssS'pt:[200.0,300.0]'
p27
(dp28
g7
F0.9138474464416504
sg8
F0.0018906650989901298
ssS'pt:[500.0,700.0]'
p29
(dp30
g7
F0.8948412537574768
sg8
F0.016963850334341158
ssssS'Mu50_OR_OldMu100_OR_TkMu100_EtaBins'
p31
(dp32
S'histo_eta_DATA'
p33
(dp34
S'eta:[-0.2,0.2]'
p35
(dp36
g7
F0.9537035226821899
sg8
F0.00029998389675133186
ssS'eta:[-2.4,-2.1]'
p37
(dp38
g7
F0.8256476521492004
sg8
F0.0009389645534180561
ssS'eta:[0.3,0.9]'
p39
(dp40
g7
F0.9404303431510925
sg8
F0.00028952152139151844
ssS'eta:[-0.9,-0.3]'
p41
(dp42
g7
F0.9470033049583435
sg8
F0.0002737054983874102
ssS'eta:[0.2,0.3]'
p43
(dp44
g7
F0.8601616024971008
sg8
F0.0010289832274306627
ssS'eta:[0.9,1.2]'
p45
(dp46
g7
F0.9402334690093994
sg8
F0.00040522091620043743
ssS'eta:[-1.2,-0.9]'
p47
(dp48
g7
F0.9450811147689819
sg8
F0.00039110726405269894
ssS'eta:[2.1,2.4]'
p49
(dp50
g7
F0.8193342089653015
sg8
F0.0009463550626258505
ssS'eta:[-1.6,-1.2]'
p51
(dp52
g7
F0.9573192596435547
sg8
F0.00032087871158170776
ssS'eta:[1.2,1.6]'
p53
(dp54
g7
F0.9516487121582031
sg8
F0.00033976078080672016
ssS'eta:[-2.1,-1.6]'
p55
(dp56
g7
F0.87360680103302
sg8
F0.0005419529903331373
ssS'eta:[-0.3,-0.2]'
p57
(dp58
g7
F0.868837833404541
sg8
F0.001035540290723923
ssS'eta:[1.6,2.1]'
p59
(dp60
g7
F0.8910200595855713
sg8
F0.0005009856695783479
ssssS'IsoMu24_EtaBins'
p61
(dp62
S'histo_eta_DATA'
p63
(dp64
S'eta:[-0.2,0.2]'
p65
(dp66
g7
F0.9430134892463684
sg8
F0.00011541079292123734
ssS'eta:[-2.4,-2.1]'
p67
(dp68
g7
F0.8024258613586426
sg8
F0.0003422671688371189
ssS'eta:[0.3,0.9]'
p69
(dp70
g7
F0.9288340210914612
sg8
F0.00010691124257109798
ssS'eta:[-0.9,-0.3]'
p71
(dp72
g7
F0.9348442554473877
sg8
F0.00010239446003789953
ssS'eta:[0.2,0.3]'
p73
(dp74
g7
F0.8802223801612854
sg8
F0.00033675102170189564
ssS'eta:[0.9,1.2]'
p75
(dp76
g7
F0.9237079620361328
sg8
F0.00017139492767706646
ssS'eta:[-1.2,-0.9]'
p77
(dp78
g7
F0.9273943305015564
sg8
F0.00016753267708519677
ssS'eta:[2.1,2.4]'
p79
(dp80
g7
F0.789142906665802
sg8
F0.0003494078798933172
ssS'eta:[-1.6,-1.2]'
p81
(dp82
g7
F0.937602162361145
sg8
F0.00014656761438482365
ssS'eta:[1.2,1.6]'
p83
(dp84
g7
F0.93146151304245
sg8
F0.0001509851387188799
ssS'eta:[-2.1,-1.6]'
p85
(dp86
g7
F0.8532944321632385
sg8
F0.00020483085540966715
ssS'eta:[-0.3,-0.2]'
p87
(dp88
g7
F0.8795803189277649
sg8
F0.0003329048878202386
ssS'eta:[1.6,2.1]'
p89
(dp90
g7
F0.8708725571632385
sg8
F0.00019395432604984905
ssssS'Mu50_OR_OldMu100_OR_TkMu100_VtxBins'
p91
(dp92
S'histo_tag_nVertices_DATA'
p93
(dp94
S'tag:[30.5,32.5]'
p95
(dp96
g7
F0.9204989075660706
sg8
F0.0005475224356078019
ssS'tag:[46.5,48.5]'
p97
(dp98
g7
F0.9141948819160461
sg8
F0.00199110025670548
ssS'tag:[28.5,30.5]'
p99
(dp100
g7
F0.9220205545425415
sg8
F0.0004939879637130407
ssS'tag:[44.5,46.5]'
p101
(dp102
g7
F0.9180154800415039
sg8
F0.0016130457424882378
ssS'tag:[6.5,8.5]'
p103
(dp104
g7
F0.9330396056175232
sg8
F0.001266065395489086
ssS'tag:[14.5,16.5]'
p105
(dp106
g7
F0.9283934831619263
sg8
F0.00046767686486872225
ssS'tag:[50.5,52.5]'
p107
(dp108
g7
F0.9149990081787109
sg8
F0.0031746040062408066
ssS'tag:[24.5,26.5]'
p109
(dp110
g7
F0.9243636131286621
sg8
F0.0004353551386008751
ssS'tag:[34.5,36.5]'
p111
(dp112
g7
F0.9193212389945984
sg8
F0.0006417181175137475
ssS'tag:[8.5,10.5]'
p113
(dp114
g7
F0.9315999746322632
sg8
F0.0008830841285649947
ssS'tag:[18.5,20.5]'
p115
(dp116
g7
F0.9266777634620667
sg8
F0.00044399512121057514
ssS'tag:[16.5,18.5]'
p117
(dp118
g7
F0.9267076253890991
sg8
F0.0004318847797529618
ssS'tag:[56.5,58.5]'
p119
(dp120
g7
F0.9100602865219116
sg8
F0.006525260992123323
ssS'tag:[32.5,34.5]'
p121
(dp122
g7
F0.9209296107292175
sg8
F0.0006194924926586828
ssS'tag:[48.5,50.5]'
p123
(dp124
g7
F0.9187612533569336
sg8
F0.0024559146598847645
ssS'tag:[22.5,24.5]'
p125
(dp126
g7
F0.923701286315918
sg8
F0.00040139528518567453
ssS'tag:[52.5,54.5]'
p127
(dp128
g7
F0.9153634309768677
sg8
F0.0038155844992911418
ssS'tag:[42.5,44.5]'
p129
(dp130
g7
F0.9169363975524902
sg8
F0.0014378017001470671
ssS'tag:[38.5,40.5]'
p131
(dp132
g7
F0.9169741272926331
sg8
F0.0009474775577174604
ssS'tag:[2.5,4.5]'
p133
(dp134
g7
F0.9337009191513062
sg8
F0.0035943586382948763
ssS'tag:[12.5,14.5]'
p135
(dp136
g7
F0.9303112626075745
sg8
F0.0006307932300234155
ssS'tag:[0.5,2.5]'
p137
(dp138
g7
F0.9340339303016663
sg8
F0.006535251005078
ssS'tag:[40.5,42.5]'
p139
(dp140
g7
F0.916078507900238
sg8
F0.0011966395226758707
ssS'tag:[54.5,56.5]'
p141
(dp142
g7
F0.9192572832107544
sg8
F0.00491420899863601
ssS'tag:[20.5,22.5]'
p143
(dp144
g7
F0.9253383278846741
sg8
F0.00039897170655069835
ssS'tag:[10.5,12.5]'
p145
(dp146
g7
F0.9315595626831055
sg8
F0.0007653249329385232
ssS'tag:[26.5,28.5]'
p147
(dp148
g7
F0.9227010011672974
sg8
F0.0013252866828653564
ssS'tag:[58.5,60.5]'
p149
(dp150
g7
F0.9170788526535034
sg8
F0.0005158192608851753
ssS'tag:[36.5,38.5]'
p151
(dp152
g7
F0.9212337732315063
sg8
F0.0008391363942157615
ssS'tag:[4.5,6.5]'
p153
(dp154
g7
F0.9347161054611206
sg8
F0.00221627187132687
ssssS'IsoMu24_VtxBins'
p155
(dp156
S'histo_tag_nVertices_DATA'
p157
(dp158
S'tag:[30.5,32.5]'
p159
(dp160
g7
F0.9013200998306274
sg8
F0.0001952731138969133
ssS'tag:[46.5,48.5]'
p161
(dp162
g7
F0.8880511522293091
sg8
F0.0008792899107555339
ssS'tag:[28.5,30.5]'
p163
(dp164
g7
F0.9034199118614197
sg8
F0.00017854431426961136
ssS'tag:[44.5,46.5]'
p165
(dp166
g7
F0.8886959552764893
sg8
F0.0006981651306551147
ssS'tag:[6.5,8.5]'
p167
(dp168
g7
F0.9244730472564697
sg8
F0.0004727531754585393
ssS'tag:[14.5,16.5]'
p169
(dp170
g7
F0.9169977307319641
sg8
F0.0001829568412845188
ssS'tag:[50.5,52.5]'
p171
(dp172
g7
F0.8839364051818848
sg8
F0.001393886296611237
ssS'tag:[24.5,26.5]'
p173
(dp174
g7
F0.9069930911064148
sg8
F0.0001610779536172959
ssS'tag:[34.5,36.5]'
p175
(dp176
g7
F0.8972996473312378
sg8
F0.00026249072694377974
ssS'tag:[8.5,10.5]'
p177
(dp178
g7
F0.9221088290214539
sg8
F0.0003340397292231335
ssS'tag:[18.5,20.5]'
p179
(dp180
g7
F0.9131189584732056
sg8
F0.00015887828072683866
ssS'tag:[16.5,18.5]'
p181
(dp182
g7
F0.9150846600532532
sg8
F0.00016618986642527874
ssS'tag:[56.5,58.5]'
p183
(dp184
g7
F0.8819094300270081
sg8
F0.002747104374037159
ssS'tag:[32.5,34.5]'
p185
(dp186
g7
F0.8994603753089905
sg8
F0.00022242703642859007
ssS'tag:[48.5,50.5]'
p187
(dp188
g7
F0.8836699724197388
sg8
F0.00112431808792607
ssS'tag:[22.5,24.5]'
p189
(dp190
g7
F0.9090276956558228
sg8
F0.00015401914713554876
ssS'tag:[52.5,54.5]'
p191
(dp192
g7
F0.8786460161209106
sg8
F0.0022867020508613046
ssS'tag:[42.5,44.5]'
p193
(dp194
g7
F0.890232264995575
sg8
F0.0005587024050496416
ssS'tag:[38.5,40.5]'
p195
(dp196
g7
F0.893060564994812
sg8
F0.00036838763630784986
ssS'tag:[2.5,4.5]'
p197
(dp198
g7
F0.9270424246788025
sg8
F0.0013144691047618576
ssS'tag:[12.5,14.5]'
p199
(dp200
g7
F0.9187309741973877
sg8
F0.00020686031633545195
ssS'tag:[0.5,2.5]'
p201
(dp202
g7
F0.9330061674118042
sg8
F0.0027294329516848854
ssS'tag:[40.5,42.5]'
p203
(dp204
g7
F0.891753077507019
sg8
F0.00044565197287053346
ssS'tag:[54.5,56.5]'
p205
(dp206
g7
F0.8829971551895142
sg8
F0.0021204458813150937
ssS'tag:[20.5,22.5]'
p207
(dp208
g7
F0.91083824634552
sg8
F0.00015284830759876232
ssS'tag:[10.5,12.5]'
p209
(dp210
g7
F0.9207064509391785
sg8
F0.0002504364161986041
ssS'tag:[26.5,28.5]'
p211
(dp212
g7
F0.905253529548645
sg8
F0.000165961299558014
ssS'tag:[58.5,60.5]'
p213
(dp214
g7
F0.8761781454086304
sg8
F0.0030235989097518443
ssS'tag:[36.5,38.5]'
p215
(dp216
g7
F0.895724892616272
sg8
F0.0003016017436522086
ssS'tag:[4.5,6.5]'
p217
(dp218
g7
F0.9261981248855591
sg8
F0.0007645167415139163
ssssS'IsoMu24_PtEtaBins'
p219
(dp220
S'abseta_pt_DATA'
p221
(dp222
S'abseta:[0.0,0.9]'
p223
(dp224
S'pt:[200.0,300.0]'
p225
(dp226
g7
F0.9225825071334839
sg8
F0.0026334311422601905
ssS'pt:[30.0,40.0]'
p227
(dp228
g7
F0.9230125546455383
sg8
F0.00010052790157509081
ssS'pt:[26.0,30.0]'
p229
(dp230
g7
F0.8981866836547852
sg8
F0.0003154833847152755
ssS'pt:[60.0,120.0]'
p231
(dp232
g7
F0.9404017329216003
sg8
F0.0003329569311680034
ssS'pt:[120.0,200.0]'
p233
(dp234
g7
F0.9342767596244812
sg8
F0.0010815219440150868
ssS'pt:[300.0,1200.0]'
p235
(dp236
g7
F0.8973246216773987
sg8
F0.006897591162383483
ssS'pt:[50.0,60.0]'
p237
(dp238
g7
F0.9390319585800171
sg8
F0.0001632476675401119
ssS'pt:[40.0,50.0]'
p239
(dp240
g7
F0.9354934692382812
sg8
F7.753016152184378e-05
sssS'abseta:[1.2,2.1]'
p241
(dp242
S'pt:[200.0,300.0]'
p243
(dp244
g7
F0.9074284434318542
sg8
F0.0035397521071432432
ssS'pt:[30.0,40.0]'
p245
(dp246
g7
F0.8852240443229675
sg8
F0.0001568972401645665
ssS'pt:[26.0,30.0]'
p247
(dp248
g7
F0.8518872261047363
sg8
F0.000496120003576956
ssS'pt:[60.0,120.0]'
p249
(dp250
g7
F0.9195489883422852
sg8
F0.0003937755989290337
ssS'pt:[120.0,200.0]'
p251
(dp252
g7
F0.9175182580947876
sg8
F0.0016224193868011746
ssS'pt:[300.0,1200.0]'
p253
(dp254
g7
F0.9069849252700806
sg8
F0.008539076508036128
ssS'pt:[50.0,60.0]'
p255
(dp256
g7
F0.9143072366714478
sg8
F0.00023191131553691675
ssS'pt:[40.0,50.0]'
p257
(dp258
g7
F0.9076412916183472
sg8
F0.00010531414506242475
sssS'abseta:[2.1,2.4]'
p259
(dp260
S'pt:[200.0,300.0]'
p261
(dp262
g7
F0.8290793299674988
sg8
F0.014607485488351762
ssS'pt:[30.0,40.0]'
p263
(dp264
g7
F0.7780017256736755
sg8
F0.00038891539415234194
ssS'pt:[26.0,30.0]'
p265
(dp266
g7
F0.7096239328384399
sg8
F0.001068026374256787
ssS'pt:[60.0,120.0]'
p267
(dp268
g7
F0.8392589688301086
sg8
F0.0013287853043764588
ssS'pt:[120.0,200.0]'
p269
(dp270
g7
F0.8396418690681458
sg8
F0.0071898014726772905
ssS'pt:[300.0,1200.0]'
p271
(dp272
g7
F0.8021486401557922
sg8
F0.03252124571275628
ssS'pt:[50.0,60.0]'
p273
(dp274
g7
F0.8295277953147888
sg8
F0.0006651013364756589
ssS'pt:[40.0,50.0]'
p275
(dp276
g7
F0.8176633715629578
sg8
F0.00030511062539465396
sssS'abseta:[0.9,1.2]'
p277
(dp278
S'pt:[200.0,300.0]'
p279
(dp280
g7
F0.9060879945755005
sg8
F0.005198083472253774
ssS'pt:[30.0,40.0]'
p281
(dp282
g7
F0.9150134921073914
sg8
F0.00020902197257679662
ssS'pt:[26.0,30.0]'
p283
(dp284
g7
F0.8664416074752808
sg8
F0.0007833643892009551
ssS'pt:[60.0,120.0]'
p285
(dp286
g7
F0.9421609044075012
sg8
F0.0004818282085191101
ssS'pt:[120.0,200.0]'
p287
(dp288
g7
F0.9314934015274048
sg8
F0.0020246761391991405
ssS'pt:[300.0,1200.0]'
p289
(dp290
g7
F0.8884395360946655
sg8
F0.012579575700825825
ssS'pt:[50.0,60.0]'
p291
(dp292
g7
F0.9411582946777344
sg8
F0.00029402966223108693
ssS'pt:[40.0,50.0]'
p293
(dp294
g7
F0.9354234337806702
sg8
F0.0001392104427888692
ssssS'pt_abseta_DATA'
p295
(dp296
S'pt:[200.0,300.0]'
p297
(dp298
S'abseta:[0.0,0.9]'
p299
(dp300
g7
F0.9225825071334839
sg8
F0.0026334311422601905
ssS'abseta:[1.2,2.1]'
p301
(dp302
g7
F0.9074284434318542
sg8
F0.0035397521071432432
ssS'abseta:[2.1,2.4]'
p303
(dp304
g7
F0.8290793299674988
sg8
F0.014607485488351762
ssS'abseta:[0.9,1.2]'
p305
(dp306
g7
F0.9060879945755005
sg8
F0.005198083472253774
sssS'pt:[30.0,40.0]'
p307
(dp308
S'abseta:[0.0,0.9]'
p309
(dp310
g7
F0.9230125546455383
sg8
F0.00010052790157509081
ssS'abseta:[1.2,2.1]'
p311
(dp312
g7
F0.8852240443229675
sg8
F0.0001568972401645665
ssS'abseta:[2.1,2.4]'
p313
(dp314
g7
F0.7780017256736755
sg8
F0.00038891539415234194
ssS'abseta:[0.9,1.2]'
p315
(dp316
g7
F0.9150134921073914
sg8
F0.00020902197257679662
sssS'pt:[26.0,30.0]'
p317
(dp318
S'abseta:[0.0,0.9]'
p319
(dp320
g7
F0.8981866836547852
sg8
F0.0003154833847152755
ssS'abseta:[1.2,2.1]'
p321
(dp322
g7
F0.8518872261047363
sg8
F0.000496120003576956
ssS'abseta:[2.1,2.4]'
p323
(dp324
g7
F0.7096239328384399
sg8
F0.001068026374256787
ssS'abseta:[0.9,1.2]'
p325
(dp326
g7
F0.8664416074752808
sg8
F0.0007833643892009551
sssS'pt:[60.0,120.0]'
p327
(dp328
S'abseta:[0.0,0.9]'
p329
(dp330
g7
F0.9404017329216003
sg8
F0.0003329569311680034
ssS'abseta:[1.2,2.1]'
p331
(dp332
g7
F0.9195489883422852
sg8
F0.0003937755989290337
ssS'abseta:[2.1,2.4]'
p333
(dp334
g7
F0.8392589688301086
sg8
F0.0013287853043764588
ssS'abseta:[0.9,1.2]'
p335
(dp336
g7
F0.9421609044075012
sg8
F0.0004818282085191101
sssS'pt:[120.0,200.0]'
p337
(dp338
S'abseta:[0.0,0.9]'
p339
(dp340
g7
F0.9342767596244812
sg8
F0.0010815219440150868
ssS'abseta:[1.2,2.1]'
p341
(dp342
g7
F0.9175182580947876
sg8
F0.0016224193868011746
ssS'abseta:[2.1,2.4]'
p343
(dp344
g7
F0.8396418690681458
sg8
F0.0071898014726772905
ssS'abseta:[0.9,1.2]'
p345
(dp346
g7
F0.9314934015274048
sg8
F0.0020246761391991405
sssS'pt:[300.0,1200.0]'
p347
(dp348
S'abseta:[0.0,0.9]'
p349
(dp350
g7
F0.8973246216773987
sg8
F0.006897591162383483
ssS'abseta:[1.2,2.1]'
p351
(dp352
g7
F0.9069849252700806
sg8
F0.008539076508036128
ssS'abseta:[2.1,2.4]'
p353
(dp354
g7
F0.8021486401557922
sg8
F0.03252124571275628
ssS'abseta:[0.9,1.2]'
p355
(dp356
g7
F0.8884395360946655
sg8
F0.012579575700825825
sssS'pt:[50.0,60.0]'
p357
(dp358
S'abseta:[0.0,0.9]'
p359
(dp360
g7
F0.9390319585800171
sg8
F0.0001632476675401119
ssS'abseta:[1.2,2.1]'
p361
(dp362
g7
F0.9143072366714478
sg8
F0.00023191131553691675
ssS'abseta:[2.1,2.4]'
p363
(dp364
g7
F0.8295277953147888
sg8
F0.0006651013364756589
ssS'abseta:[0.9,1.2]'
p365
(dp366
g7
F0.9411582946777344
sg8
F0.00029402966223108693
sssS'pt:[40.0,50.0]'
p367
(dp368
S'abseta:[0.0,0.9]'
p369
(dp370
g7
F0.9354934692382812
sg8
F7.753016152184378e-05
ssS'abseta:[1.2,2.1]'
p371
(dp372
g7
F0.9076412916183472
sg8
F0.00010531414506242475
ssS'abseta:[2.1,2.4]'
p373
(dp374
g7
F0.8176633715629578
sg8
F0.00030511062539465396
ssS'abseta:[0.9,1.2]'
p375
(dp376
g7
F0.9354234337806702
sg8
F0.0001392104427888692
sssssS'IsoMu24_PtBins'
p377
(dp378
S'histo_pt_DATA'
p379
(dp380
S'pt:[22.0,24.0]'
p381
(dp382
g7
F0.0249604694545269
sg8
F0.0002232786652744099
ssS'pt:[18.0,22.0]'
p383
(dp384
g7
F0.000722227618098259
sg8
F4.751451557109395e-05
ssS'pt:[300.0,500.0]'
p385
(dp386
g7
F0.899389922618866
sg8
F0.007921663798009255
ssS'pt:[200.0,300.0]'
p387
(dp388
g7
F0.9103274941444397
sg8
F0.0019650804604093197
ssS'pt:[30.0,40.0]'
p389
(dp390
g7
F0.8980523943901062
sg8
F8.074383913300357e-05
ssS'pt:[26.0,30.0]'
p391
(dp392
g7
F0.8607224225997925
sg8
F0.00025922011356899736
ssS'pt:[60.0,120.0]'
p393
(dp394
g7
F0.9276925921440125
sg8
F0.00020097469320286797
ssS'pt:[120.0,200.0]'
p395
(dp396
g7
F0.9224259853363037
sg8
F0.0009619406542289403
ssS'pt:[24.0,26.0]'
p397
(dp398
g7
F0.8059558868408203
sg8
F0.00038993917500183546
ssS'pt:[700.0,1200.0]'
p399
(dp400
g7
F0.7803091406822205
sg8
F0.07468861006763111
ssS'pt:[2.0,18.0]'
p401
(dp402
g7
F6.892098554089898e-06
sg8
F3.5599681241141947e-06
ssS'pt:[50.0,60.0]'
p403
(dp404
g7
F0.9229559302330017
sg8
F0.0001308373207787659
ssS'pt:[500.0,700.0]'
p405
(dp406
g7
F0.8994865417480469
sg8
F0.017221550526710417
ssS'pt:[40.0,50.0]'
p407
(dp408
g7
F0.9175636172294617
sg8
F5.8124822391647445e-05
ssssS'Mu50_OR_OldMu100_OR_TkMu100_PtEtaBins'
p409
(dp410
S'abseta_pt_DATA'
p411
(dp412
S'abseta:[0.0,0.9]'
p413
(dp414
S'pt:[56.0,60.0]'
p415
(dp416
g7
F0.9386879801750183
sg8
F0.00034802664496822166
ssS'pt:[60.0,120.0]'
p417
(dp418
g7
F0.9375678896903992
sg8
F0.00031833617674002855
ssS'pt:[120.0,200.0]'
p419
(dp420
g7
F0.9330918192863464
sg8
F0.001321770419739285
ssS'pt:[52.0,56.0]'
p421
(dp422
g7
F0.9384986758232117
sg8
F0.0002533808100732377
ssS'pt:[200.0,300.0]'
p423
(dp424
g7
F0.9202133417129517
sg8
F0.0028531694624605725
ssS'pt:[300.0,1200.0]'
p425
(dp426
g7
F0.8993294835090637
sg8
F0.006280947048027453
sssS'abseta:[1.2,2.1]'
p427
(dp428
S'pt:[56.0,60.0]'
p429
(dp430
g7
F0.9196650385856628
sg8
F0.0004572633130381068
ssS'pt:[60.0,120.0]'
p431
(dp432
g7
F0.9218224883079529
sg8
F0.00036003946104443395
ssS'pt:[120.0,200.0]'
p433
(dp434
g7
F0.9255006909370422
sg8
F0.0014321973783119571
ssS'pt:[52.0,56.0]'
p435
(dp436
g7
F0.915318489074707
sg8
F0.00033429181446910735
ssS'pt:[200.0,300.0]'
p437
(dp438
g7
F0.9152036905288696
sg8
F0.0033320313753999425
ssS'pt:[300.0,1200.0]'
p439
(dp440
g7
F0.9072346687316895
sg8
F0.008053917232056604
sssS'abseta:[2.1,2.4]'
p441
(dp442
S'pt:[56.0,60.0]'
p443
(dp444
g7
F0.8251721262931824
sg8
F0.0014470596779187057
ssS'pt:[60.0,120.0]'
p445
(dp446
g7
F0.8387673497200012
sg8
F0.0011125263671244855
ssS'pt:[120.0,200.0]'
p447
(dp448
g7
F0.8502689003944397
sg8
F0.0051124857851797875
ssS'pt:[52.0,56.0]'
p449
(dp450
g7
F0.8011149764060974
sg8
F0.0010400546088905358
ssS'pt:[200.0,300.0]'
p451
(dp452
g7
F0.8337479829788208
sg8
F0.02256738368617464
ssS'pt:[300.0,1200.0]'
p453
(dp454
g7
F0.8204967379570007
sg8
F0.030399245310474464
sssS'abseta:[0.9,1.2]'
p455
(dp456
S'pt:[56.0,60.0]'
p457
(dp458
g7
F0.9445635676383972
sg8
F0.0006152461044257013
ssS'pt:[60.0,120.0]'
p459
(dp460
g7
F0.9422346353530884
sg8
F0.0005150196300302353
ssS'pt:[120.0,200.0]'
p461
(dp462
g7
F0.9384850263595581
sg8
F0.0018419864105519792
ssS'pt:[52.0,56.0]'
p463
(dp464
g7
F0.9429138898849487
sg8
F0.00042789240675112397
ssS'pt:[200.0,300.0]'
p465
(dp466
g7
F0.9213684797286987
sg8
F0.005055683825748271
ssS'pt:[300.0,1200.0]'
p467
(dp468
g7
F0.8872140049934387
sg8
F0.02163390876658338
ssssS'pt_abseta_DATA'
p469
(dp470
S'pt:[56.0,60.0]'
p471
(dp472
S'abseta:[0.0,0.9]'
p473
(dp474
g7
F0.9386879801750183
sg8
F0.00034802664496822166
ssS'abseta:[1.2,2.1]'
p475
(dp476
g7
F0.9196650385856628
sg8
F0.0004572633130381068
ssS'abseta:[2.1,2.4]'
p477
(dp478
g7
F0.8251721262931824
sg8
F0.0014470596779187057
ssS'abseta:[0.9,1.2]'
p479
(dp480
g7
F0.9445635676383972
sg8
F0.0006152461044257013
sssS'pt:[60.0,120.0]'
p481
(dp482
S'abseta:[0.0,0.9]'
p483
(dp484
g7
F0.9375678896903992
sg8
F0.00031833617674002855
ssS'abseta:[1.2,2.1]'
p485
(dp486
g7
F0.9218224883079529
sg8
F0.00036003946104443395
ssS'abseta:[2.1,2.4]'
p487
(dp488
g7
F0.8387673497200012
sg8
F0.0011125263671244855
ssS'abseta:[0.9,1.2]'
p489
(dp490
g7
F0.9422346353530884
sg8
F0.0005150196300302353
sssS'pt:[120.0,200.0]'
p491
(dp492
S'abseta:[0.0,0.9]'
p493
(dp494
g7
F0.9330918192863464
sg8
F0.001321770419739285
ssS'abseta:[1.2,2.1]'
p495
(dp496
g7
F0.9255006909370422
sg8
F0.0014321973783119571
ssS'abseta:[2.1,2.4]'
p497
(dp498
g7
F0.8502689003944397
sg8
F0.0051124857851797875
ssS'abseta:[0.9,1.2]'
p499
(dp500
g7
F0.9384850263595581
sg8
F0.0018419864105519792
sssS'pt:[52.0,56.0]'
p501
(dp502
S'abseta:[0.0,0.9]'
p503
(dp504
g7
F0.9384986758232117
sg8
F0.0002533808100732377
ssS'abseta:[1.2,2.1]'
p505
(dp506
g7
F0.915318489074707
sg8
F0.00033429181446910735
ssS'abseta:[2.1,2.4]'
p507
(dp508
g7
F0.8011149764060974
sg8
F0.0010400546088905358
ssS'abseta:[0.9,1.2]'
p509
(dp510
g7
F0.9429138898849487
sg8
F0.00042789240675112397
sssS'pt:[200.0,300.0]'
p511
(dp512
S'abseta:[0.0,0.9]'
p513
(dp514
g7
F0.9202133417129517
sg8
F0.0028531694624605725
ssS'abseta:[1.2,2.1]'
p515
(dp516
g7
F0.9152036905288696
sg8
F0.0033320313753999425
ssS'abseta:[2.1,2.4]'
p517
(dp518
g7
F0.8337479829788208
sg8
F0.02256738368617464
ssS'abseta:[0.9,1.2]'
p519
(dp520
g7
F0.9213684797286987
sg8
F0.005055683825748271
sssS'pt:[300.0,1200.0]'
p521
(dp522
S'abseta:[0.0,0.9]'
p523
(dp524
g7
F0.8993294835090637
sg8
F0.006280947048027453
ssS'abseta:[1.2,2.1]'
p525
(dp526
g7
F0.9072346687316895
sg8
F0.008053917232056604
ssS'abseta:[2.1,2.4]'
p527
(dp528
g7
F0.8204967379570007
sg8
F0.030399245310474464
ssS'abseta:[0.9,1.2]'
p529
(dp530
g7
F0.8872140049934387
sg8
F0.02163390876658338
sssss.