(dp0
S'Mu50_OR_OldMu100_OR_TkMu100_PtBins'
p1
(dp2
S'histo_pt_DATA'
p3
(dp4
S'pt:[44.0,48.0]'
p5
(dp6
S'value'
p7
F0.01626846380531788
sS'error'
p8
F0.00010363396874324895
ssS'pt:[700.0,1200.0]'
p9
(dp10
g7
F0.857142984867096
sg8
F0.10923535245012608
ssS'pt:[48.0,50.0]'
p11
(dp12
g7
F0.14072829484939575
sg8
F0.0005289747426015415
ssS'pt:[56.0,60.0]'
p13
(dp14
g7
F0.9022423624992371
sg8
F0.0007120302698037
ssS'pt:[60.0,120.0]'
p15
(dp16
g7
F0.9121677875518799
sg8
F0.0006516798962828482
ssS'pt:[120.0,200.0]'
p17
(dp18
g7
F0.9202858209609985
sg8
F0.00602071892061975
ssS'pt:[300.0,500.0]'
p19
(dp20
g7
F0.9033080339431763
sg8
F0.011003755101884682
ssS'pt:[52.0,56.0]'
p21
(dp22
g7
F0.8828123211860657
sg8
F0.0005561658195052481
ssS'pt:[2.0,44.0]'
p23
(dp24
g7
F0.001760426675900817
sg8
F2.0250593629131566e-05
ssS'pt:[50.0,52.0]'
p25
(dp26
g7
F0.7133507132530212
sg8
F0.0008357716972696961
ssS'pt:[200.0,300.0]'
p27
(dp28
g7
F0.9060685634613037
sg8
F0.00575386098438635
ssS'pt:[500.0,700.0]'
p29
(dp30
g7
F0.8477985858917236
sg8
F0.04615843384235366
ssssS'Mu50_OR_OldMu100_OR_TkMu100_EtaBins'
p31
(dp32
S'histo_eta_DATA'
p33
(dp34
S'eta:[-0.2,0.2]'
p35
(dp36
g7
F0.9511936902999878
sg8
F0.0007496080389595086
ssS'eta:[-2.4,-2.1]'
p37
(dp38
g7
F0.763797402381897
sg8
F0.0026042841870895545
ssS'eta:[0.3,0.9]'
p39
(dp40
g7
F0.9363272786140442
sg8
F0.0007342867228252398
ssS'eta:[-0.9,-0.3]'
p41
(dp42
g7
F0.9436905384063721
sg8
F0.0006273838702920619
ssS'eta:[0.2,0.3]'
p43
(dp44
g7
F0.8553865551948547
sg8
F0.002650597904635389
ssS'eta:[0.9,1.2]'
p45
(dp46
g7
F0.9235976338386536
sg8
F0.0011798700468390025
ssS'eta:[-1.2,-0.9]'
p47
(dp48
g7
F0.9289232492446899
sg8
F0.0011900450685170738
ssS'eta:[2.1,2.4]'
p49
(dp50
g7
F0.7613399028778076
sg8
F0.0025453455446390557
ssS'eta:[-1.6,-1.2]'
p51
(dp52
g7
F0.8910747766494751
sg8
F0.0012346675574920144
ssS'eta:[1.2,1.6]'
p53
(dp54
g7
F0.8752036690711975
sg8
F0.0013035065791689978
ssS'eta:[-2.1,-1.6]'
p55
(dp56
g7
F0.8521838784217834
sg8
F0.0013898416034453867
ssS'eta:[-0.3,-0.2]'
p57
(dp58
g7
F0.8625450134277344
sg8
F0.0024529987836480875
ssS'eta:[1.6,2.1]'
p59
(dp60
g7
F0.8644336462020874
sg8
F0.0013144039043801424
ssssS'IsoMu24_EtaBins'
p61
(dp62
S'histo_eta_DATA'
p63
(dp64
S'eta:[-0.2,0.2]'
p65
(dp66
g7
F0.9390390515327454
sg8
F0.0002806217711410961
ssS'eta:[-2.4,-2.1]'
p67
(dp68
g7
F0.7918503880500793
sg8
F0.0008337013525166078
ssS'eta:[0.3,0.9]'
p69
(dp70
g7
F0.9220335483551025
sg8
F0.0002686336348252805
ssS'eta:[-0.9,-0.3]'
p71
(dp72
g7
F0.9294480085372925
sg8
F0.0002529983734871574
ssS'eta:[0.2,0.3]'
p73
(dp74
g7
F0.8724209070205688
sg8
F0.0008211463638057364
ssS'eta:[0.9,1.2]'
p75
(dp76
g7
F0.9063449501991272
sg8
F0.0004494941566744955
ssS'eta:[-1.2,-0.9]'
p77
(dp78
g7
F0.9089674949645996
sg8
F0.00043999383658946845
ssS'eta:[2.1,2.4]'
p79
(dp80
g7
F0.7817196846008301
sg8
F0.0008258703657754408
ssS'eta:[-1.6,-1.2]'
p81
(dp82
g7
F0.8724727630615234
sg8
F0.0004618754158074641
ssS'eta:[1.2,1.6]'
p83
(dp84
g7
F0.8611284494400024
sg8
F0.0004755024684667752
ssS'eta:[-2.1,-1.6]'
p85
(dp86
g7
F0.8421968817710876
sg8
F0.0005044897215580271
ssS'eta:[-0.3,-0.2]'
p87
(dp88
g7
F0.8725583553314209
sg8
F0.0008106970538887807
ssS'eta:[1.6,2.1]'
p89
(dp90
g7
F0.8590068817138672
sg8
F0.00048760647503569206
ssssS'Mu50_OR_OldMu100_OR_TkMu100_VtxBins'
p91
(dp92
S'histo_tag_nVertices_DATA'
p93
(dp94
S'tag:[30.5,32.5]'
p95
(dp96
g7
F0.896645724773407
sg8
F0.0013010150348012751
ssS'tag:[46.5,48.5]'
p97
(dp98
g7
F0.8886299729347229
sg8
F0.0038702909992201153
ssS'tag:[28.5,30.5]'
p99
(dp100
g7
F0.8962243795394897
sg8
F0.0012068078703065203
ssS'tag:[44.5,46.5]'
p101
(dp102
g7
F0.8897489905357361
sg8
F0.0032070291203746613
ssS'tag:[6.5,8.5]'
p103
(dp104
g7
F0.9122279286384583
sg8
F0.004267963075967974
ssS'tag:[14.5,16.5]'
p105
(dp106
g7
F0.9089174270629883
sg8
F0.0014057209508168194
ssS'tag:[50.5,52.5]'
p107
(dp108
g7
F0.8851550221443176
sg8
F0.007666753366060656
ssS'tag:[24.5,26.5]'
p109
(dp110
g7
F0.89936763048172
sg8
F0.0012021681741785591
ssS'tag:[34.5,36.5]'
p111
(dp112
g7
F0.8937796354293823
sg8
F0.001739141212887271
ssS'tag:[8.5,10.5]'
p113
(dp114
g7
F0.9112544655799866
sg8
F0.0028893638226105286
ssS'tag:[18.5,20.5]'
p115
(dp116
g7
F0.9069874286651611
sg8
F0.0012929950233727188
ssS'tag:[16.5,18.5]'
p117
(dp118
g7
F0.907893717288971
sg8
F0.0013470324931462237
ssS'tag:[56.5,58.5]'
p119
(dp120
g7
F0.905411958694458
sg8
F0.010599964760486998
ssS'tag:[32.5,34.5]'
p121
(dp122
g7
F0.89631587266922
sg8
F0.001561172221094301
ssS'tag:[48.5,50.5]'
p123
(dp124
g7
F0.8941647410392761
sg8
F0.004926132419751254
ssS'tag:[22.5,24.5]'
p125
(dp126
g7
F0.9029801487922668
sg8
F0.001096348761770478
ssS'tag:[52.5,54.5]'
p127
(dp128
g7
F0.8880794048309326
sg8
F0.007639366193627477
ssS'tag:[42.5,44.5]'
p129
(dp130
g7
F0.8919050097465515
sg8
F0.0029723757013280596
ssS'tag:[38.5,40.5]'
p131
(dp132
g7
F0.8907271027565002
sg8
F0.002002011894447398
ssS'tag:[2.5,4.5]'
p133
(dp134
g7
F0.9050617218017578
sg8
F0.01501678559276176
ssS'tag:[12.5,14.5]'
p135
(dp136
g7
F0.9089453220367432
sg8
F0.001782221111251933
ssS'tag:[0.5,2.5]'
p137
(dp138
g7
F0.9555588364601135
sg8
F0.020193077345804326
ssS'tag:[40.5,42.5]'
p139
(dp140
g7
F0.8909178376197815
sg8
F0.0022895826006783314
ssS'tag:[54.5,56.5]'
p141
(dp142
g7
F0.8857467770576477
sg8
F0.008486475198880341
ssS'tag:[20.5,22.5]'
p143
(dp144
g7
F0.9018862247467041
sg8
F0.001148743229916302
ssS'tag:[10.5,12.5]'
p145
(dp146
g7
F0.9097673892974854
sg8
F0.0018755488611482327
ssS'tag:[26.5,28.5]'
p147
(dp148
g7
F0.9002576470375061
sg8
F0.0012399235614403688
ssS'tag:[58.5,60.5]'
p149
(dp150
g7
F0.9020864963531494
sg8
F0.011857701414715144
ssS'tag:[36.5,38.5]'
p151
(dp152
g7
F0.8912112712860107
sg8
F0.0017022244572885861
ssS'tag:[4.5,6.5]'
p153
(dp154
g7
F0.9212141633033752
sg8
F0.007987659694428923
ssssS'IsoMu24_VtxBins'
p155
(dp156
S'histo_tag_nVertices_DATA'
p157
(dp158
S'tag:[30.5,32.5]'
p159
(dp160
g7
F0.8829078674316406
sg8
F0.00046940009028709917
ssS'tag:[46.5,48.5]'
p161
(dp162
g7
F0.8654225468635559
sg8
F0.0014842733109773029
ssS'tag:[28.5,30.5]'
p163
(dp164
g7
F0.8848080039024353
sg8
F0.0004420208195985896
ssS'tag:[44.5,46.5]'
p165
(dp166
g7
F0.8655017614364624
sg8
F0.0012044694516704288
ssS'tag:[6.5,8.5]'
p167
(dp168
g7
F0.9132015705108643
sg8
F0.002826567220893089
ssS'tag:[14.5,16.5]'
p169
(dp170
g7
F0.9043429493904114
sg8
F0.0005370286859413269
ssS'tag:[50.5,52.5]'
p171
(dp172
g7
F0.862896740436554
sg8
F0.0021851690967258555
ssS'tag:[24.5,26.5]'
p173
(dp174
g7
F0.8916507363319397
sg8
F0.0004054963238015723
ssS'tag:[34.5,36.5]'
p175
(dp176
g7
F0.8784894943237305
sg8
F0.0005602331087713652
ssS'tag:[8.5,10.5]'
p177
(dp178
g7
F0.9135540127754211
sg8
F0.0010281855160541673
ssS'tag:[18.5,20.5]'
p179
(dp180
g7
F0.8996694684028625
sg8
F0.0004472807444382544
ssS'tag:[16.5,18.5]'
p181
(dp182
g7
F0.9019839763641357
sg8
F0.00047595460875819663
ssS'tag:[56.5,58.5]'
p183
(dp184
g7
F0.8508093357086182
sg8
F0.0035955887074069124
ssS'tag:[32.5,34.5]'
p185
(dp186
g7
F0.8813188672065735
sg8
F0.0005120516318171956
ssS'tag:[48.5,50.5]'
p187
(dp188
g7
F0.8633096218109131
sg8
F0.001869259382957523
ssS'tag:[22.5,24.5]'
p189
(dp190
g7
F0.8942332863807678
sg8
F0.00041323279179331036
ssS'tag:[52.5,54.5]'
p191
(dp192
g7
F0.8635022640228271
sg8
F0.0028712947609987483
ssS'tag:[42.5,44.5]'
p193
(dp194
g7
F0.8692690134048462
sg8
F0.001116131641304004
ssS'tag:[38.5,40.5]'
p195
(dp196
g7
F0.8733668923377991
sg8
F0.0007148423605185856
ssS'tag:[2.5,4.5]'
p197
(dp198
g7
F0.9213427901268005
sg8
F0.005423677880492177
ssS'tag:[12.5,14.5]'
p199
(dp200
g7
F0.9085965752601624
sg8
F0.0005981264386767702
ssS'tag:[0.5,2.5]'
p201
(dp202
g7
F0.9337844252586365
sg8
F0.008018535092619029
ssS'tag:[40.5,42.5]'
p203
(dp204
g7
F0.8700061440467834
sg8
F0.0008550198541341714
ssS'tag:[54.5,56.5]'
p205
(dp206
g7
F0.8523106575012207
sg8
F0.004147039685826477
ssS'tag:[20.5,22.5]'
p207
(dp208
g7
F0.8970098495483398
sg8
F0.0004166409573183618
ssS'tag:[10.5,12.5]'
p209
(dp210
g7
F0.9096100330352783
sg8
F0.0007966272205203762
ssS'tag:[26.5,28.5]'
p211
(dp212
g7
F0.8883795738220215
sg8
F0.0004164945228227535
ssS'tag:[58.5,60.5]'
p213
(dp214
g7
F0.8587855100631714
sg8
F0.00459734579700419
ssS'tag:[36.5,38.5]'
p215
(dp216
g7
F0.8765321969985962
sg8
F0.0006363654749408368
ssS'tag:[4.5,6.5]'
p217
(dp218
g7
F0.9156140089035034
sg8
F0.0029320409741136273
ssssS'IsoMu24_PtEtaBins'
p219
(dp220
S'abseta_pt_DATA'
p221
(dp222
S'abseta:[0.0,0.9]'
p223
(dp224
S'pt:[200.0,300.0]'
p225
(dp226
g7
F0.9012564420700073
sg8
F0.007348306885571982
ssS'pt:[30.0,40.0]'
p227
(dp228
g7
F0.9164335131645203
sg8
F0.00025324294734391565
ssS'pt:[26.0,30.0]'
p229
(dp230
g7
F0.8900846838951111
sg8
F0.0007706645152140741
ssS'pt:[60.0,120.0]'
p231
(dp232
g7
F0.9366288185119629
sg8
F0.0006270416978019235
ssS'pt:[120.0,200.0]'
p233
(dp234
g7
F0.9214113354682922
sg8
F0.0025568628789421253
ssS'pt:[300.0,1200.0]'
p235
(dp236
g7
F0.9002189040184021
sg8
F0.013656665298806648
ssS'pt:[50.0,60.0]'
p237
(dp238
g7
F0.9344208240509033
sg8
F0.00044556978344269867
ssS'pt:[40.0,50.0]'
p239
(dp240
g7
F0.9304014444351196
sg8
F0.0001907710420494473
sssS'abseta:[1.2,2.1]'
p241
(dp242
S'pt:[200.0,300.0]'
p243
(dp244
g7
F0.8785607218742371
sg8
F0.010466580016924378
ssS'pt:[30.0,40.0]'
p245
(dp246
g7
F0.8427144289016724
sg8
F0.0004202030134566653
ssS'pt:[26.0,30.0]'
p247
(dp248
g7
F0.8041992783546448
sg8
F0.0012834032333463859
ssS'pt:[60.0,120.0]'
p249
(dp250
g7
F0.8884508609771729
sg8
F0.0011822033034438585
ssS'pt:[120.0,200.0]'
p251
(dp252
g7
F0.8907119631767273
sg8
F0.003977688087859928
ssS'pt:[300.0,1200.0]'
p253
(dp254
g7
F0.843098521232605
sg8
F0.039218854983946116
ssS'pt:[50.0,60.0]'
p255
(dp256
g7
F0.880793035030365
sg8
F0.0006318549426829957
ssS'pt:[40.0,50.0]'
p257
(dp258
g7
F0.8692471981048584
sg8
F0.00029165550913970504
sssS'abseta:[2.1,2.4]'
p259
(dp260
S'pt:[200.0,300.0]'
p261
(dp262
g7
F0.8720956444740295
sg8
F0.042685716898856065
ssS'pt:[30.0,40.0]'
p263
(dp264
g7
F0.7661204934120178
sg8
F0.0009383678049857766
ssS'pt:[26.0,30.0]'
p265
(dp266
g7
F0.6818621158599854
sg8
F0.002497507128981543
ssS'pt:[60.0,120.0]'
p267
(dp268
g7
F0.8399812579154968
sg8
F0.0026630608396135238
ssS'pt:[120.0,200.0]'
p269
(dp270
g7
F0.8379348516464233
sg8
F0.011395620629406978
ssS'pt:[300.0,1200.0]'
p271
(dp272
g7
F0.8457010388374329
sg8
F0.07952312068768395
ssS'pt:[50.0,60.0]'
p273
(dp274
g7
F0.8276311159133911
sg8
F0.0015750731137137647
ssS'pt:[40.0,50.0]'
p275
(dp276
g7
F0.8136492371559143
sg8
F0.0007364018131741996
sssS'abseta:[0.9,1.2]'
p277
(dp278
S'pt:[200.0,300.0]'
p279
(dp280
g7
F0.8853834867477417
sg8
F0.013223690685124
ssS'pt:[30.0,40.0]'
p281
(dp282
g7
F0.8957171440124512
sg8
F0.0005416337844742335
ssS'pt:[26.0,30.0]'
p283
(dp284
g7
F0.8453991413116455
sg8
F0.0020264418781920763
ssS'pt:[60.0,120.0]'
p285
(dp286
g7
F0.9276968240737915
sg8
F0.0012700907154637345
ssS'pt:[120.0,200.0]'
p287
(dp288
g7
F0.9155039191246033
sg8
F0.004770819096490265
ssS'pt:[300.0,1200.0]'
p289
(dp290
g7
F0.9033332467079163
sg8
F0.026689913855297443
ssS'pt:[50.0,60.0]'
p291
(dp292
g7
F0.9255048036575317
sg8
F0.0007762750828040236
ssS'pt:[40.0,50.0]'
p293
(dp294
g7
F0.9181388020515442
sg8
F0.00037002138817490975
ssssS'pt_abseta_DATA'
p295
(dp296
S'pt:[200.0,300.0]'
p297
(dp298
S'abseta:[0.0,0.9]'
p299
(dp300
g7
F0.9012564420700073
sg8
F0.007348306885571982
ssS'abseta:[1.2,2.1]'
p301
(dp302
g7
F0.8785607218742371
sg8
F0.010466580016924378
ssS'abseta:[2.1,2.4]'
p303
(dp304
g7
F0.8720956444740295
sg8
F0.042685716898856065
ssS'abseta:[0.9,1.2]'
p305
(dp306
g7
F0.8853834867477417
sg8
F0.013223690685124
sssS'pt:[30.0,40.0]'
p307
(dp308
S'abseta:[0.0,0.9]'
p309
(dp310
g7
F0.9164335131645203
sg8
F0.00025324294734391565
ssS'abseta:[1.2,2.1]'
p311
(dp312
g7
F0.8427144289016724
sg8
F0.0004202030134566653
ssS'abseta:[2.1,2.4]'
p313
(dp314
g7
F0.7661204934120178
sg8
F0.0009383678049857766
ssS'abseta:[0.9,1.2]'
p315
(dp316
g7
F0.8957171440124512
sg8
F0.0005416337844742335
sssS'pt:[26.0,30.0]'
p317
(dp318
S'abseta:[0.0,0.9]'
p319
(dp320
g7
F0.8900846838951111
sg8
F0.0007706645152140741
ssS'abseta:[1.2,2.1]'
p321
(dp322
g7
F0.8041992783546448
sg8
F0.0012834032333463859
ssS'abseta:[2.1,2.4]'
p323
(dp324
g7
F0.6818621158599854
sg8
F0.002497507128981543
ssS'abseta:[0.9,1.2]'
p325
(dp326
g7
F0.8453991413116455
sg8
F0.0020264418781920763
sssS'pt:[60.0,120.0]'
p327
(dp328
S'abseta:[0.0,0.9]'
p329
(dp330
g7
F0.9366288185119629
sg8
F0.0006270416978019235
ssS'abseta:[1.2,2.1]'
p331
(dp332
g7
F0.8884508609771729
sg8
F0.0011822033034438585
ssS'abseta:[2.1,2.4]'
p333
(dp334
g7
F0.8399812579154968
sg8
F0.0026630608396135238
ssS'abseta:[0.9,1.2]'
p335
(dp336
g7
F0.9276968240737915
sg8
F0.0012700907154637345
sssS'pt:[120.0,200.0]'
p337
(dp338
S'abseta:[0.0,0.9]'
p339
(dp340
g7
F0.9214113354682922
sg8
F0.0025568628789421253
ssS'abseta:[1.2,2.1]'
p341
(dp342
g7
F0.8907119631767273
sg8
F0.003977688087859928
ssS'abseta:[2.1,2.4]'
p343
(dp344
g7
F0.8379348516464233
sg8
F0.011395620629406978
ssS'abseta:[0.9,1.2]'
p345
(dp346
g7
F0.9155039191246033
sg8
F0.004770819096490265
sssS'pt:[300.0,1200.0]'
p347
(dp348
S'abseta:[0.0,0.9]'
p349
(dp350
g7
F0.9002189040184021
sg8
F0.013656665298806648
ssS'abseta:[1.2,2.1]'
p351
(dp352
g7
F0.843098521232605
sg8
F0.039218854983946116
ssS'abseta:[2.1,2.4]'
p353
(dp354
g7
F0.8457010388374329
sg8
F0.07952312068768395
ssS'abseta:[0.9,1.2]'
p355
(dp356
g7
F0.9033332467079163
sg8
F0.026689913855297443
sssS'pt:[50.0,60.0]'
p357
(dp358
S'abseta:[0.0,0.9]'
p359
(dp360
g7
F0.9344208240509033
sg8
F0.00044556978344269867
ssS'abseta:[1.2,2.1]'
p361
(dp362
g7
F0.880793035030365
sg8
F0.0006318549426829957
ssS'abseta:[2.1,2.4]'
p363
(dp364
g7
F0.8276311159133911
sg8
F0.0015750731137137647
ssS'abseta:[0.9,1.2]'
p365
(dp366
g7
F0.9255048036575317
sg8
F0.0007762750828040236
sssS'pt:[40.0,50.0]'
p367
(dp368
S'abseta:[0.0,0.9]'
p369
(dp370
g7
F0.9304014444351196
sg8
F0.0001907710420494473
ssS'abseta:[1.2,2.1]'
p371
(dp372
g7
F0.8692471981048584
sg8
F0.00029165550913970504
ssS'abseta:[2.1,2.4]'
p373
(dp374
g7
F0.8136492371559143
sg8
F0.0007364018131741996
ssS'abseta:[0.9,1.2]'
p375
(dp376
g7
F0.9181388020515442
sg8
F0.00037002138817490975
sssssS'IsoMu24_PtBins'
p377
(dp378
S'histo_pt_DATA'
p379
(dp380
S'pt:[22.0,24.0]'
p381
(dp382
g7
F0.05211644619703293
sg8
F0.0007342738131017167
ssS'pt:[18.0,22.0]'
p383
(dp384
g7
F0.0025586318224668503
sg8
F0.00019733776378972337
ssS'pt:[300.0,500.0]'
p385
(dp386
g7
F0.8892983794212341
sg8
F0.011237164315126611
ssS'pt:[200.0,300.0]'
p387
(dp388
g7
F0.8903795480728149
sg8
F0.005904961429802374
ssS'pt:[30.0,40.0]'
p389
(dp390
g7
F0.8781012892723083
sg8
F0.00020910369304144076
ssS'pt:[26.0,30.0]'
p391
(dp392
g7
F0.8359828591346741
sg8
F0.0006477466046743597
ssS'pt:[60.0,120.0]'
p393
(dp394
g7
F0.9136611819267273
sg8
F0.0005562422603979324
ssS'pt:[120.0,200.0]'
p395
(dp396
g7
F0.9079695343971252
sg8
F0.0022357333409070983
ssS'pt:[24.0,26.0]'
p397
(dp398
g7
F0.7404837012290955
sg8
F0.0013073230187174475
ssS'pt:[700.0,1200.0]'
p399
(dp400
g7
F0.9230791926383972
sg8
F0.09511390558089294
ssS'pt:[2.0,18.0]'
p401
(dp402
g7
F0.00019226667063776404
sg8
F3.403196904208865e-05
ssS'pt:[50.0,60.0]'
p403
(dp404
g7
F0.9073455333709717
sg8
F0.000338589012643498
ssS'pt:[500.0,700.0]'
p405
(dp406
g7
F0.8179255723953247
sg8
F0.053174306152858834
ssS'pt:[40.0,50.0]'
p407
(dp408
g7
F0.899700939655304
sg8
F0.00015118776462157954
ssssS'Mu50_OR_OldMu100_OR_TkMu100_PtEtaBins'
p409
(dp410
S'abseta_pt_DATA'
p411
(dp412
S'abseta:[0.0,0.9]'
p413
(dp414
S'pt:[56.0,60.0]'
p415
(dp416
g7
F0.9358648061752319
sg8
F0.0008711933667012225
ssS'pt:[60.0,120.0]'
p417
(dp418
g7
F0.9353976845741272
sg8
F0.000649703882938672
ssS'pt:[120.0,200.0]'
p419
(dp420
g7
F0.9280534386634827
sg8
F0.0038032653959490727
ssS'pt:[52.0,56.0]'
p421
(dp422
g7
F0.9327630996704102
sg8
F0.0006446236078899385
ssS'pt:[200.0,300.0]'
p423
(dp424
g7
F0.9119662642478943
sg8
F0.007055354891785953
ssS'pt:[300.0,1200.0]'
p425
(dp426
g7
F0.9032945036888123
sg8
F0.01352803751474338
sssS'abseta:[1.2,2.1]'
p427
(dp428
S'pt:[56.0,60.0]'
p429
(dp430
g7
F0.8736762404441833
sg8
F0.0014033228610155412
ssS'pt:[60.0,120.0]'
p431
(dp432
g7
F0.8903579115867615
sg8
F0.0009838008839895321
ssS'pt:[120.0,200.0]'
p433
(dp434
g7
F0.9179542660713196
sg8
F0.003961259643484156
ssS'pt:[52.0,56.0]'
p435
(dp436
g7
F0.8433279395103455
sg8
F0.001066727002179607
ssS'pt:[200.0,300.0]'
p437
(dp438
g7
F0.9045419096946716
sg8
F0.009934501061745475
ssS'pt:[300.0,1200.0]'
p439
(dp440
g7
F0.8927909731864929
sg8
F0.021189500565237405
sssS'abseta:[2.1,2.4]'
p441
(dp442
S'pt:[56.0,60.0]'
p443
(dp444
g7
F0.7724258303642273
sg8
F0.0038609497389069936
ssS'pt:[60.0,120.0]'
p445
(dp446
g7
F0.8243494033813477
sg8
F0.00292551293592724
ssS'pt:[120.0,200.0]'
p447
(dp448
g7
F0.8464319109916687
sg8
F0.012437374117783633
ssS'pt:[52.0,56.0]'
p449
(dp450
g7
F0.6811640858650208
sg8
F0.0029724148624102782
ssS'pt:[200.0,300.0]'
p451
(dp452
g7
F0.8622048497200012
sg8
F0.03106350288994878
ssS'pt:[300.0,1200.0]'
p453
(dp454
g7
F0.8079569339752197
sg8
F0.1273549700022857
sssS'abseta:[0.9,1.2]'
p455
(dp456
S'pt:[56.0,60.0]'
p457
(dp458
g7
F0.9280397891998291
sg8
F0.0016570801109549575
ssS'pt:[60.0,120.0]'
p459
(dp460
g7
F0.9293188452720642
sg8
F0.001471069004825125
ssS'pt:[120.0,200.0]'
p461
(dp462
g7
F0.9359476566314697
sg8
F0.004230292799257524
ssS'pt:[52.0,56.0]'
p463
(dp464
g7
F0.9210867881774902
sg8
F0.0012384236856290626
ssS'pt:[200.0,300.0]'
p465
(dp466
g7
F0.8949413895606995
sg8
F0.013299361494591223
ssS'pt:[300.0,1200.0]'
p467
(dp468
g7
F0.8985582590103149
sg8
F0.02847447890026247
ssssS'pt_abseta_DATA'
p469
(dp470
S'pt:[56.0,60.0]'
p471
(dp472
S'abseta:[0.0,0.9]'
p473
(dp474
g7
F0.9358648061752319
sg8
F0.0008711933667012225
ssS'abseta:[1.2,2.1]'
p475
(dp476
g7
F0.8736762404441833
sg8
F0.0014033228610155412
ssS'abseta:[2.1,2.4]'
p477
(dp478
g7
F0.7724258303642273
sg8
F0.0038609497389069936
ssS'abseta:[0.9,1.2]'
p479
(dp480
g7
F0.9280397891998291
sg8
F0.0016570801109549575
sssS'pt:[60.0,120.0]'
p481
(dp482
S'abseta:[0.0,0.9]'
p483
(dp484
g7
F0.9353976845741272
sg8
F0.000649703882938672
ssS'abseta:[1.2,2.1]'
p485
(dp486
g7
F0.8903579115867615
sg8
F0.0009838008839895321
ssS'abseta:[2.1,2.4]'
p487
(dp488
g7
F0.8243494033813477
sg8
F0.00292551293592724
ssS'abseta:[0.9,1.2]'
p489
(dp490
g7
F0.9293188452720642
sg8
F0.001471069004825125
sssS'pt:[120.0,200.0]'
p491
(dp492
S'abseta:[0.0,0.9]'
p493
(dp494
g7
F0.9280534386634827
sg8
F0.0038032653959490727
ssS'abseta:[1.2,2.1]'
p495
(dp496
g7
F0.9179542660713196
sg8
F0.003961259643484156
ssS'abseta:[2.1,2.4]'
p497
(dp498
g7
F0.8464319109916687
sg8
F0.012437374117783633
ssS'abseta:[0.9,1.2]'
p499
(dp500
g7
F0.9359476566314697
sg8
F0.004230292799257524
sssS'pt:[52.0,56.0]'
p501
(dp502
S'abseta:[0.0,0.9]'
p503
(dp504
g7
F0.9327630996704102
sg8
F0.0006446236078899385
ssS'abseta:[1.2,2.1]'
p505
(dp506
g7
F0.8433279395103455
sg8
F0.001066727002179607
ssS'abseta:[2.1,2.4]'
p507
(dp508
g7
F0.6811640858650208
sg8
F0.0029724148624102782
ssS'abseta:[0.9,1.2]'
p509
(dp510
g7
F0.9210867881774902
sg8
F0.0012384236856290626
sssS'pt:[200.0,300.0]'
p511
(dp512
S'abseta:[0.0,0.9]'
p513
(dp514
g7
F0.9119662642478943
sg8
F0.007055354891785953
ssS'abseta:[1.2,2.1]'
p515
(dp516
g7
F0.9045419096946716
sg8
F0.009934501061745475
ssS'abseta:[2.1,2.4]'
p517
(dp518
g7
F0.8622048497200012
sg8
F0.03106350288994878
ssS'abseta:[0.9,1.2]'
p519
(dp520
g7
F0.8949413895606995
sg8
F0.013299361494591223
sssS'pt:[300.0,1200.0]'
p521
(dp522
S'abseta:[0.0,0.9]'
p523
(dp524
g7
F0.9032945036888123
sg8
F0.01352803751474338
ssS'abseta:[1.2,2.1]'
p525
(dp526
g7
F0.8927909731864929
sg8
F0.021189500565237405
ssS'abseta:[2.1,2.4]'
p527
(dp528
g7
F0.8079569339752197
sg8
F0.1273549700022857
ssS'abseta:[0.9,1.2]'
p529
(dp530
g7
F0.8985582590103149
sg8
F0.02847447890026247
sssss.