(dp0
S'Mu50_PtBins'
p1
(dp2
S'histo_pt_DATA'
p3
(dp4
S'pt:[300.0,500.0]'
p5
(dp6
S'value'
p7
F0.8810430765151978
sS'error'
p8
F0.005918677398220997
ssS'pt:[700.0,1200.0]'
p9
(dp10
g7
F0.8479124903678894
sg8
F0.0641339850305772
ssS'pt:[48.0,50.0]'
p11
(dp12
g7
F0.12840023636817932
sg8
F0.00022674253861135814
ssS'pt:[60.0,120.0]'
p13
(dp14
g7
F0.9043111205101013
sg8
F0.00034547313387240123
ssS'pt:[120.0,200.0]'
p15
(dp16
g7
F0.8985597491264343
sg8
F0.001175526202531711
ssS'pt:[55.0,60.0]'
p17
(dp18
g7
F0.8946071267127991
sg8
F0.00029424341644280404
ssS'pt:[45.0,48.0]'
p19
(dp20
g7
F0.02196563221514225
sg8
F6.424853041282535e-05
ssS'pt:[52.0,55.0]'
p21
(dp22
g7
F0.8723928928375244
sg8
F0.0002875073284701137
ssS'pt:[500.0,700.0]'
p23
(dp24
g7
F0.8609982132911682
sg8
F0.022031589994425078
ssS'pt:[50.0,52.0]'
p25
(dp26
g7
F0.7282460331916809
sg8
F0.0003739624349159891
ssS'pt:[200.0,300.0]'
p27
(dp28
g7
F0.8858998417854309
sg8
F0.0028503905089317496
ssS'pt:[2.0,45.0]'
p29
(dp30
g7
F0.0027291763108223677
sg8
F9.893375425083096e-06
ssssS'IsoMu27_PtBins'
p31
(dp32
S'histo_pt_DATA'
p33
(dp34
S'pt:[300.0,500.0]'
p35
(dp36
g7
F0.8864930868148804
sg8
F0.005405274685267354
ssS'pt:[200.0,300.0]'
p37
(dp38
g7
F0.8910722136497498
sg8
F0.002899498492694628
ssS'pt:[2.0,22.0]'
p39
(dp40
g7
F0.0003533224808052182
sg8
F3.8964077819818415e-05
ssS'pt:[60.0,120.0]'
p41
(dp42
g7
F0.9060896635055542
sg8
F0.0003102209232803234
ssS'pt:[120.0,200.0]'
p43
(dp44
g7
F0.9003384113311768
sg8
F0.0012274433791289588
ssS'pt:[32.0,40.0]'
p45
(dp46
g7
F0.8769084811210632
sg8
F0.00010263089739222268
ssS'pt:[22.0,25.0]'
p47
(dp48
g7
F0.004717706236988306
sg8
F0.00012631244579468977
ssS'pt:[500.0,700.0]'
p49
(dp50
g7
F0.85960453748703
sg8
F0.022223533221912884
ssS'pt:[700.0,1200.0]'
p51
(dp52
g7
F0.8607673645019531
sg8
F0.05923044117672139
ssS'pt:[25.0,27.0]'
p53
(dp54
g7
F0.06253970414400101
sg8
F0.00031744046162914365
ssS'pt:[29.0,32.0]'
p55
(dp56
g7
F0.8456985950469971
sg8
F0.00029601078599631424
ssS'pt:[50.0,60.0]'
p57
(dp58
g7
F0.9011539220809937
sg8
F0.000154327702978697
ssS'pt:[27.0,29.0]'
p59
(dp60
g7
F0.7638856768608093
sg8
F0.0005088151344218602
ssS'pt:[40.0,50.0]'
p61
(dp62
g7
F0.8947696685791016
sg8
F7.18185529525641e-05
ssssS'IsoMu27_EtaBins'
p63
(dp64
S'histo_eta_DATA'
p65
(dp66
S'eta:[-0.2,0.2]'
p67
(dp68
g7
F0.9334511160850525
sg8
F0.00013968025619509963
ssS'eta:[-2.4,-2.1]'
p69
(dp70
g7
F0.7270232439041138
sg8
F0.00043580795923309305
ssS'eta:[0.3,0.9]'
p71
(dp72
g7
F0.9206593036651611
sg8
F0.00012695973815314378
ssS'eta:[-0.9,-0.3]'
p73
(dp74
g7
F0.9289535284042358
sg8
F0.00012062207074301026
ssS'eta:[0.2,0.3]'
p75
(dp76
g7
F0.8589780926704407
sg8
F0.000414436871045485
ssS'eta:[0.9,1.2]'
p77
(dp78
g7
F0.8934386372566223
sg8
F0.0002159234221780276
ssS'eta:[-1.2,-0.9]'
p79
(dp80
g7
F0.9012684226036072
sg8
F0.00021091312675045946
ssS'eta:[2.1,2.4]'
p81
(dp82
g7
F0.7718449234962463
sg8
F0.00041858178621299576
ssS'eta:[-1.6,-1.2]'
p83
(dp84
g7
F0.8989995718002319
sg8
F0.00020188032458829975
ssS'eta:[1.2,1.6]'
p85
(dp86
g7
F0.8901082277297974
sg8
F0.00020487493945087513
ssS'eta:[-2.1,-1.6]'
p87
(dp88
g7
F0.8194708824157715
sg8
F0.0002502470392720195
ssS'eta:[-0.3,-0.2]'
p89
(dp90
g7
F0.8566677570343018
sg8
F0.0004170708935382334
ssS'eta:[1.6,2.1]'
p91
(dp92
g7
F0.8650113940238953
sg8
F0.00022653798685594192
ssssS'IsoMu27_PtEtaBins'
p93
(dp94
S'abseta_pt_DATA'
p95
(dp96
S'abseta:[0.0,0.9]'
p97
(dp98
S'pt:[200.0,1200.0]'
p99
(dp100
g7
F0.906362771987915
sg8
F0.003031751092891642
ssS'pt:[60.0,120.0]'
p101
(dp102
g7
F0.9285075664520264
sg8
F0.00046658744373016223
ssS'pt:[120.0,200.0]'
p103
(dp104
g7
F0.9206593632698059
sg8
F0.0016231239180272527
ssS'pt:[32.0,40.0]'
p105
(dp106
g7
F0.9141939878463745
sg8
F0.00012536949638522344
ssS'pt:[29.0,32.0]'
p107
(dp108
g7
F0.8986954092979431
sg8
F0.000339433639305527
ssS'pt:[40.0,50.0]'
p109
(dp110
g7
F0.9246364831924438
sg8
F9.273953998950254e-05
ssS'pt:[50.0,60.0]'
p111
(dp112
g7
F0.9275859594345093
sg8
F0.0002021531594427439
sssS'abseta:[1.2,2.1]'
p113
(dp114
S'pt:[200.0,1200.0]'
p115
(dp116
g7
F0.8860496282577515
sg8
F0.004443704276956117
ssS'pt:[60.0,120.0]'
p117
(dp118
g7
F0.891466498374939
sg8
F0.0005305643037089937
ssS'pt:[120.0,200.0]'
p119
(dp120
g7
F0.8896984457969666
sg8
F0.0033132961045717313
ssS'pt:[32.0,40.0]'
p121
(dp122
g7
F0.8539246320724487
sg8
F0.0002029146878936443
ssS'pt:[29.0,32.0]'
p123
(dp124
g7
F0.8184208869934082
sg8
F0.0005975142734786044
ssS'pt:[40.0,50.0]'
p125
(dp126
g7
F0.8767918348312378
sg8
F0.00013350200863478649
ssS'pt:[50.0,60.0]'
p127
(dp128
g7
F0.8863519430160522
sg8
F0.00027908089914259286
sssS'abseta:[2.1,2.4]'
p129
(dp130
S'pt:[200.0,1200.0]'
p131
(dp132
g7
F0.7922462224960327
sg8
F0.01957820752692383
ssS'pt:[60.0,120.0]'
p133
(dp134
g7
F0.8031379580497742
sg8
F0.0017884742454802806
ssS'pt:[120.0,200.0]'
p135
(dp136
g7
F0.809643030166626
sg8
F0.007447636568750649
ssS'pt:[32.0,40.0]'
p137
(dp138
g7
F0.725704550743103
sg8
F0.0004954334662636441
ssS'pt:[29.0,32.0]'
p139
(dp140
g7
F0.642516553401947
sg8
F0.0012914962715168464
ssS'pt:[40.0,50.0]'
p141
(dp142
g7
F0.7721936106681824
sg8
F0.0003711588384560238
ssS'pt:[50.0,60.0]'
p143
(dp144
g7
F0.7931295037269592
sg8
F0.0007841236709088515
sssS'abseta:[0.9,1.2]'
p145
(dp146
S'pt:[200.0,1200.0]'
p147
(dp148
g7
F0.8705963492393494
sg8
F0.00619427992489055
ssS'pt:[60.0,120.0]'
p149
(dp150
g7
F0.9069061875343323
sg8
F0.0007752039574300808
ssS'pt:[120.0,200.0]'
p151
(dp152
g7
F0.8919714689254761
sg8
F0.0031721062458389742
ssS'pt:[32.0,40.0]'
p153
(dp154
g7
F0.8886955976486206
sg8
F0.000269731612098447
ssS'pt:[29.0,32.0]'
p155
(dp156
g7
F0.8621211647987366
sg8
F0.0008322330094934284
ssS'pt:[40.0,50.0]'
p157
(dp158
g7
F0.9032931327819824
sg8
F0.0001848978853310075
ssS'pt:[50.0,60.0]'
p159
(dp160
g7
F0.9084885120391846
sg8
F0.0003989088734062033
ssssS'pt_abseta_DATA'
p161
(dp162
S'pt:[200.0,1200.0]'
p163
(dp164
S'abseta:[0.0,0.9]'
p165
(dp166
g7
F0.906362771987915
sg8
F0.003031751092891642
ssS'abseta:[1.2,2.1]'
p167
(dp168
g7
F0.8860496282577515
sg8
F0.004443704276956117
ssS'abseta:[2.1,2.4]'
p169
(dp170
g7
F0.7922462224960327
sg8
F0.01957820752692383
ssS'abseta:[0.9,1.2]'
p171
(dp172
g7
F0.8705963492393494
sg8
F0.00619427992489055
sssS'pt:[60.0,120.0]'
p173
(dp174
S'abseta:[0.0,0.9]'
p175
(dp176
g7
F0.9285075664520264
sg8
F0.00046658744373016223
ssS'abseta:[1.2,2.1]'
p177
(dp178
g7
F0.891466498374939
sg8
F0.0005305643037089937
ssS'abseta:[2.1,2.4]'
p179
(dp180
g7
F0.8031379580497742
sg8
F0.0017884742454802806
ssS'abseta:[0.9,1.2]'
p181
(dp182
g7
F0.9069061875343323
sg8
F0.0007752039574300808
sssS'pt:[120.0,200.0]'
p183
(dp184
S'abseta:[0.0,0.9]'
p185
(dp186
g7
F0.9206593632698059
sg8
F0.0016231239180272527
ssS'abseta:[1.2,2.1]'
p187
(dp188
g7
F0.8896984457969666
sg8
F0.0033132961045717313
ssS'abseta:[2.1,2.4]'
p189
(dp190
g7
F0.809643030166626
sg8
F0.007447636568750649
ssS'abseta:[0.9,1.2]'
p191
(dp192
g7
F0.8919714689254761
sg8
F0.0031721062458389742
sssS'pt:[32.0,40.0]'
p193
(dp194
S'abseta:[0.0,0.9]'
p195
(dp196
g7
F0.9141939878463745
sg8
F0.00012536949638522344
ssS'abseta:[1.2,2.1]'
p197
(dp198
g7
F0.8539246320724487
sg8
F0.0002029146878936443
ssS'abseta:[2.1,2.4]'
p199
(dp200
g7
F0.725704550743103
sg8
F0.0004954334662636441
ssS'abseta:[0.9,1.2]'
p201
(dp202
g7
F0.8886955976486206
sg8
F0.000269731612098447
sssS'pt:[29.0,32.0]'
p203
(dp204
S'abseta:[0.0,0.9]'
p205
(dp206
g7
F0.8986954092979431
sg8
F0.000339433639305527
ssS'abseta:[1.2,2.1]'
p207
(dp208
g7
F0.8184208869934082
sg8
F0.0005975142734786044
ssS'abseta:[2.1,2.4]'
p209
(dp210
g7
F0.642516553401947
sg8
F0.0012914962715168464
ssS'abseta:[0.9,1.2]'
p211
(dp212
g7
F0.8621211647987366
sg8
F0.0008322330094934284
sssS'pt:[40.0,50.0]'
p213
(dp214
S'abseta:[0.0,0.9]'
p215
(dp216
g7
F0.9246364831924438
sg8
F9.273953998950254e-05
ssS'abseta:[1.2,2.1]'
p217
(dp218
g7
F0.8767918348312378
sg8
F0.00013350200863478649
ssS'abseta:[2.1,2.4]'
p219
(dp220
g7
F0.7721936106681824
sg8
F0.0003711588384560238
ssS'abseta:[0.9,1.2]'
p221
(dp222
g7
F0.9032931327819824
sg8
F0.0001848978853310075
sssS'pt:[50.0,60.0]'
p223
(dp224
S'abseta:[0.0,0.9]'
p225
(dp226
g7
F0.9275859594345093
sg8
F0.0002021531594427439
ssS'abseta:[1.2,2.1]'
p227
(dp228
g7
F0.8863519430160522
sg8
F0.00027908089914259286
ssS'abseta:[2.1,2.4]'
p229
(dp230
g7
F0.7931295037269592
sg8
F0.0007841236709088515
ssS'abseta:[0.9,1.2]'
p231
(dp232
g7
F0.9084885120391846
sg8
F0.0003989088734062033
sssssS'Mu50_VtxBins'
p233
(dp234
S'histo_tag_nVertices_DATA'
p235
(dp236
S'tag:[30.5,32.5]'
p237
(dp238
g7
F0.8883749842643738
sg8
F0.0006671202502605549
ssS'tag:[46.5,48.5]'
p239
(dp240
g7
F0.8830308318138123
sg8
F0.001970356454707931
ssS'tag:[28.5,30.5]'
p241
(dp242
g7
F0.8902348875999451
sg8
F0.0006253363505222839
ssS'tag:[44.5,46.5]'
p243
(dp244
g7
F0.882942259311676
sg8
F0.001642957407627373
ssS'tag:[6.5,8.5]'
p245
(dp246
g7
F0.9025651812553406
sg8
F0.001992570012063913
ssS'tag:[14.5,16.5]'
p247
(dp248
g7
F0.8980034589767456
sg8
F0.0006301417649457487
ssS'tag:[24.5,26.5]'
p249
(dp250
g7
F0.8921278715133667
sg8
F0.0005567441244790969
ssS'tag:[34.5,36.5]'
p251
(dp252
g7
F0.8860973715782166
sg8
F0.0008024245751949892
ssS'tag:[8.5,10.5]'
p253
(dp254
g7
F0.8990800976753235
sg8
F0.001293032092962278
ssS'tag:[18.5,20.5]'
p255
(dp256
g7
F0.8956724405288696
sg8
F0.0005386166303895175
ssS'tag:[16.5,18.5]'
p257
(dp258
g7
F0.8957462310791016
sg8
F0.0005683781774550287
ssS'tag:[32.5,34.5]'
p259
(dp260
g7
F0.8880164623260498
sg8
F0.0007147754488373648
ssS'tag:[48.5,50.5]'
p261
(dp262
g7
F0.8807676434516907
sg8
F0.00253625452810141
ssS'tag:[22.5,24.5]'
p263
(dp264
g7
F0.8934050798416138
sg8
F0.0005356000920503974
ssS'tag:[42.5,44.5]'
p265
(dp266
g7
F0.8826457262039185
sg8
F0.0013886654596655223
ssS'tag:[38.5,40.5]'
p267
(dp268
g7
F0.8836029767990112
sg8
F0.0010120247147166845
ssS'tag:[2.5,4.5]'
p269
(dp270
g7
F0.9005465507507324
sg8
F0.007528786073361703
ssS'tag:[12.5,14.5]'
p271
(dp272
g7
F0.8984127640724182
sg8
F0.0007342111253392297
ssS'tag:[0.5,2.5]'
p273
(dp274
g7
F0.9074395298957825
sg8
F0.009193007788910211
ssS'tag:[40.5,42.5]'
p275
(dp276
g7
F0.8831032514572144
sg8
F0.0011733004048277613
ssS'tag:[20.5,22.5]'
p277
(dp278
g7
F0.8945985436439514
sg8
F0.0005313083271339242
ssS'tag:[10.5,12.5]'
p279
(dp280
g7
F0.8969041109085083
sg8
F0.0009451538762960538
ssS'tag:[26.5,28.5]'
p281
(dp282
g7
F0.8910509943962097
sg8
F0.0005808711948860001
ssS'tag:[36.5,38.5]'
p283
(dp284
g7
F0.8838422298431396
sg8
F0.0008877078841204608
ssS'tag:[4.5,6.5]'
p285
(dp286
g7
F0.9003037214279175
sg8
F0.0034147936485598184
ssssS'Mu50_EtaBins'
p287
(dp288
S'histo_eta_DATA'
p289
(dp290
S'eta:[-0.2,0.2]'
p291
(dp292
g7
F0.947502613067627
sg8
F0.0003642900837173621
ssS'eta:[-2.4,-2.1]'
p293
(dp294
g7
F0.697030782699585
sg8
F0.0013015179525185155
ssS'eta:[0.3,0.9]'
p295
(dp296
g7
F0.931443989276886
sg8
F0.0003356052401129174
ssS'eta:[-0.9,-0.3]'
p297
(dp298
g7
F0.9409966468811035
sg8
F0.00031972147679722954
ssS'eta:[0.2,0.3]'
p299
(dp300
g7
F0.8652157783508301
sg8
F0.001191092447525537
ssS'eta:[0.9,1.2]'
p301
(dp302
g7
F0.9021660685539246
sg8
F0.0005761901051432372
ssS'eta:[-1.2,-0.9]'
p303
(dp304
g7
F0.9118423461914062
sg8
F0.0005597796639992534
ssS'eta:[2.1,2.4]'
p305
(dp306
g7
F0.7266169190406799
sg8
F0.0012225550900674554
ssS'eta:[-1.6,-1.2]'
p307
(dp308
g7
F0.8974534273147583
sg8
F0.000526129201437925
ssS'eta:[1.2,1.6]'
p309
(dp310
g7
F0.8838796615600586
sg8
F0.0005577064658420809
ssS'eta:[-2.1,-1.6]'
p311
(dp312
g7
F0.826492965221405
sg8
F0.0006746140326974797
ssS'eta:[-0.3,-0.2]'
p313
(dp314
g7
F0.8620122671127319
sg8
F0.0011986059194880995
ssS'eta:[1.6,2.1]'
p315
(dp316
g7
F0.8663379549980164
sg8
F0.0005954701013176492
ssssS'Mu50_PtEtaBins'
p317
(dp318
S'abseta_pt_DATA'
p319
(dp320
S'abseta:[0.0,0.9]'
p321
(dp322
S'pt:[52.0,55.0]'
p323
(dp324
g7
F0.9302543997764587
sg8
F0.0003301249153148193
ssS'pt:[60.0,120.0]'
p325
(dp326
g7
F0.9321694374084473
sg8
F0.00034941404371699507
ssS'pt:[120.0,200.0]'
p327
(dp328
g7
F0.9187012910842896
sg8
F0.001610177387806056
ssS'pt:[200.0,1200.0]'
p329
(dp330
g7
F0.901651918888092
sg8
F0.0030359081820375867
ssS'pt:[55.0,60.0]'
p331
(dp332
g7
F0.9334310293197632
sg8
F0.0003602477855105632
sssS'abseta:[1.2,2.1]'
p333
(dp334
S'pt:[52.0,55.0]'
p335
(dp336
g7
F0.8369932770729065
sg8
F0.0005394211813533191
ssS'pt:[60.0,120.0]'
p337
(dp338
g7
F0.8897566795349121
sg8
F0.0004910266854254041
ssS'pt:[120.0,200.0]'
p339
(dp340
g7
F0.8885481953620911
sg8
F0.00252479512054646
ssS'pt:[200.0,1200.0]'
p341
(dp342
g7
F0.8819147944450378
sg8
F0.004496380838702499
ssS'pt:[55.0,60.0]'
p343
(dp344
g7
F0.8737484216690063
sg8
F0.0005417562332349454
sssS'abseta:[2.1,2.4]'
p345
(dp346
S'pt:[52.0,55.0]'
p347
(dp348
g7
F0.6203573942184448
sg8
F0.0015640290467897114
ssS'pt:[60.0,120.0]'
p349
(dp350
g7
F0.7786892652511597
sg8
F0.0016231786530028214
ssS'pt:[120.0,200.0]'
p351
(dp352
g7
F0.8011888265609741
sg8
F0.008515934207776622
ssS'pt:[200.0,1200.0]'
p353
(dp354
g7
F0.7820125818252563
sg8
F0.016653385958936746
ssS'pt:[55.0,60.0]'
p355
(dp356
g7
F0.7162048816680908
sg8
F0.0016256047026368921
sssS'abseta:[0.9,1.2]'
p357
(dp358
S'pt:[52.0,55.0]'
p359
(dp360
g7
F0.9029843807220459
sg8
F0.0006778009314181758
ssS'pt:[60.0,120.0]'
p361
(dp362
g7
F0.9084292054176331
sg8
F0.0007186115472431963
ssS'pt:[120.0,200.0]'
p363
(dp364
g7
F0.888775646686554
sg8
F0.003113415465442094
ssS'pt:[200.0,1200.0]'
p365
(dp366
g7
F0.8646633625030518
sg8
F0.006248734855216381
ssS'pt:[55.0,60.0]'
p367
(dp368
g7
F0.9112949967384338
sg8
F0.0007308212778560986
ssssS'pt_abseta_DATA'
p369
(dp370
S'pt:[52.0,55.0]'
p371
(dp372
S'abseta:[0.0,0.9]'
p373
(dp374
g7
F0.9302543997764587
sg8
F0.0003301249153148193
ssS'abseta:[1.2,2.1]'
p375
(dp376
g7
F0.8369932770729065
sg8
F0.0005394211813533191
ssS'abseta:[2.1,2.4]'
p377
(dp378
g7
F0.6203573942184448
sg8
F0.0015640290467897114
ssS'abseta:[0.9,1.2]'
p379
(dp380
g7
F0.9029843807220459
sg8
F0.0006778009314181758
sssS'pt:[60.0,120.0]'
p381
(dp382
S'abseta:[0.0,0.9]'
p383
(dp384
g7
F0.9321694374084473
sg8
F0.00034941404371699507
ssS'abseta:[1.2,2.1]'
p385
(dp386
g7
F0.8897566795349121
sg8
F0.0004910266854254041
ssS'abseta:[2.1,2.4]'
p387
(dp388
g7
F0.7786892652511597
sg8
F0.0016231786530028214
ssS'abseta:[0.9,1.2]'
p389
(dp390
g7
F0.9084292054176331
sg8
F0.0007186115472431963
sssS'pt:[120.0,200.0]'
p391
(dp392
S'abseta:[0.0,0.9]'
p393
(dp394
g7
F0.9187012910842896
sg8
F0.001610177387806056
ssS'abseta:[1.2,2.1]'
p395
(dp396
g7
F0.8885481953620911
sg8
F0.00252479512054646
ssS'abseta:[2.1,2.4]'
p397
(dp398
g7
F0.8011888265609741
sg8
F0.008515934207776622
ssS'abseta:[0.9,1.2]'
p399
(dp400
g7
F0.888775646686554
sg8
F0.003113415465442094
sssS'pt:[200.0,1200.0]'
p401
(dp402
S'abseta:[0.0,0.9]'
p403
(dp404
g7
F0.901651918888092
sg8
F0.0030359081820375867
ssS'abseta:[1.2,2.1]'
p405
(dp406
g7
F0.8819147944450378
sg8
F0.004496380838702499
ssS'abseta:[2.1,2.4]'
p407
(dp408
g7
F0.7820125818252563
sg8
F0.016653385958936746
ssS'abseta:[0.9,1.2]'
p409
(dp410
g7
F0.8646633625030518
sg8
F0.006248734855216381
sssS'pt:[55.0,60.0]'
p411
(dp412
S'abseta:[0.0,0.9]'
p413
(dp414
g7
F0.9334310293197632
sg8
F0.0003602477855105632
ssS'abseta:[1.2,2.1]'
p415
(dp416
g7
F0.8737484216690063
sg8
F0.0005417562332349454
ssS'abseta:[2.1,2.4]'
p417
(dp418
g7
F0.7162048816680908
sg8
F0.0016256047026368921
ssS'abseta:[0.9,1.2]'
p419
(dp420
g7
F0.9112949967384338
sg8
F0.0007308212778560986
sssssS'IsoMu27_VtxBins'
p421
(dp422
S'histo_tag_nVertices_DATA'
p423
(dp424
S'tag:[30.5,32.5]'
p425
(dp426
g7
F0.8812748789787292
sg8
F0.0002468788174286548
ssS'tag:[46.5,48.5]'
p427
(dp428
g7
F0.8638740181922913
sg8
F0.0007710581742278692
ssS'tag:[28.5,30.5]'
p429
(dp430
g7
F0.8835143446922302
sg8
F0.0002300695453981082
ssS'tag:[44.5,46.5]'
p431
(dp432
g7
F0.865654706954956
sg8
F0.0006230383775714466
ssS'tag:[6.5,8.5]'
p433
(dp434
g7
F0.9020087122917175
sg8
F0.0007230229193006583
ssS'tag:[14.5,16.5]'
p435
(dp436
g7
F0.8978143334388733
sg8
F0.0002226433503126786
ssS'tag:[24.5,26.5]'
p437
(dp438
g7
F0.8881832361221313
sg8
F0.00020132284775499992
ssS'tag:[34.5,36.5]'
p439
(dp440
g7
F0.875730574131012
sg8
F0.0002944628403585337
ssS'tag:[8.5,10.5]'
p441
(dp442
g7
F0.9014221429824829
sg8
F0.0004418539194659942
ssS'tag:[18.5,20.5]'
p443
(dp444
g7
F0.8948312401771545
sg8
F0.00019197153857219908
ssS'tag:[16.5,18.5]'
p445
(dp446
g7
F0.8964622020721436
sg8
F0.00020425051345808042
ssS'tag:[32.5,34.5]'
p447
(dp448
g7
F0.8781394958496094
sg8
F0.00026883307609466486
ssS'tag:[48.5,50.5]'
p449
(dp450
g7
F0.8620068430900574
sg8
F0.0009544646821961095
ssS'tag:[22.5,24.5]'
p451
(dp452
g7
F0.8903195858001709
sg8
F0.0001928951848913076
ssS'tag:[42.5,44.5]'
p453
(dp454
g7
F0.8669194579124451
sg8
F0.0005110937272327434
ssS'tag:[38.5,40.5]'
p455
(dp456
g7
F0.871181845664978
sg8
F0.00037082476372402777
ssS'tag:[2.5,4.5]'
p457
(dp458
g7
F0.9055004119873047
sg8
F0.0022259182071420855
ssS'tag:[12.5,14.5]'
p459
(dp460
g7
F0.8989640474319458
sg8
F0.0002611074105797782
ssS'tag:[0.5,2.5]'
p461
(dp462
g7
F0.9117468595504761
sg8
F0.0034257710270187997
ssS'tag:[40.5,42.5]'
p463
(dp464
g7
F0.869480311870575
sg8
F0.00044013251581077553
ssS'tag:[20.5,22.5]'
p465
(dp466
g7
F0.8922605514526367
sg8
F0.00019253774454715752
ssS'tag:[10.5,12.5]'
p467
(dp468
g7
F0.9006947875022888
sg8
F0.00032549204508843703
ssS'tag:[26.5,28.5]'
p469
(dp470
g7
F0.886195182800293
sg8
F0.0002122634137265133
ssS'tag:[36.5,38.5]'
p471
(dp472
g7
F0.873333752155304
sg8
F0.0003267228865709144
ssS'tag:[4.5,6.5]'
p473
(dp474
g7
F0.904655396938324
sg8
F0.0012746812678375448
ssss.